; Function Attrs: mustprogress nounwind uwtable
define dso_local void @_ZN4llvm9misexpect22checkExpectAnnotationsERNS_11InstructionENS_8ArrayRefIjEEb(ptr noundef nonnull align 8 dereferenceable(72) %0, ptr %1, i64 %2, i1 noundef zeroext %3) local_unnamed_addr #0 {
  %5 = alloca %"class.llvm::SmallVector.14", align 8
  br i1 %3, label %6, label %17

6:                                                ; preds = %4
  call void @llvm.lifetime.start.p0(i64 64, ptr nonnull %5)
  %7 = getelementptr inbounds nuw i8, ptr %5, i64 16
  call void @_ZN4llvm15SmallVectorBaseIjEC2EPvm(ptr noundef nonnull align 8 dereferenceable(64) %5, ptr noundef nonnull %7, i64 noundef 12) #11
  %8 = call noundef zeroext i1 @_ZN4llvm20extractBranchWeightsERKNS_11InstructionERNS_15SmallVectorImplIjEE(ptr noundef nonnull align 8 dereferenceable(72) %0, ptr noundef nonnull align 8 dereferenceable(16) %5) #11
  br i1 %8, label %9, label %12

9:                                                ; preds = %6
  %10 = load ptr, ptr %5, align 8
  %11 = call noundef i64 @_ZNK4llvm15SmallVectorBaseIjE4sizeEv(ptr noundef nonnull align 8 dereferenceable(16) %5) #11
  call void @_ZN4llvm9misexpect15verifyMisExpectERNS_11InstructionENS_8ArrayRefIjEES4_(ptr noundef nonnull align 8 dereferenceable(72) %0, ptr %10, i64 %11, ptr readonly %1, i64 %2)
  br label %12

12:                                               ; preds = %9, %6
  %13 = call noundef i64 @_ZNK4llvm15SmallVectorBaseIjE4sizeEv(ptr noundef nonnull align 8 dereferenceable(64) %5) #11
  %14 = load ptr, ptr %5, align 8
  %15 = icmp eq ptr %14, %7
  br i1 %15, label %_ZN4llvm9misexpect28checkFrontendInstrumentationERNS_11InstructionENS_8ArrayRefIjEE.exit, label %16

16:                                               ; preds = %12
  call void @free(ptr noundef %14) #11
  br label %_ZN4llvm9misexpect28checkFrontendInstrumentationERNS_11InstructionENS_8ArrayRefIjEE.exit

_ZN4llvm9misexpect28checkFrontendInstrumentationERNS_11InstructionENS_8ArrayRefIjEE.exit: ; preds = %12, %16
  call void @llvm.lifetime.end.p0(i64 64, ptr nonnull %5)
  br label %18

17:                                               ; preds = %4
  tail call void @_ZN4llvm9misexpect27checkBackendInstrumentationERNS_11InstructionENS_8ArrayRefIjEE(ptr noundef nonnull align 8 dereferenceable(72) %0, ptr %1, i64 %2)
  br label %18

18:                                               ; preds = %17, %_ZN4llvm9misexpect28checkFrontendInstrumentationERNS_11InstructionENS_8ArrayRefIjEE.exit
  ret void
}